target datalayout = "e-m:e-p270:32:32-p271:32:32-p272:64:64-i64:64-i128:128-f80:128-n8:16:32:64-S128"
target triple = "x86_64-pc-linux-gnu"

; Function Attrs: nounwind uwtable
define internal i32 @pix_abs16_y2_c(ptr noundef %0, ptr noundef %1, ptr noundef %2, i64 noundef %3, i32 noundef %4) #2 {
  %6 = alloca ptr, align 8
  %7 = alloca ptr, align 8
  %8 = alloca ptr, align 8
  %9 = alloca i64, align 8
  %10 = alloca i32, align 4
  %11 = alloca i32, align 4
  %12 = alloca i32, align 4
  %13 = alloca ptr, align 8
  store ptr %0, ptr %6, align 8, !tbaa !22
  store ptr %1, ptr %7, align 8, !tbaa !24
  store ptr %2, ptr %8, align 8, !tbaa !24
  store i64 %3, ptr %9, align 8, !tbaa !26
  store i32 %4, ptr %10, align 4, !tbaa !11
  call void @llvm.lifetime.start.p0(i64 4, ptr %11) #9
  store i32 0, ptr %11, align 4, !tbaa !11
  call void @llvm.lifetime.start.p0(i64 4, ptr %12) #9
  call void @llvm.lifetime.start.p0(i64 8, ptr %13) #9
  %14 = load ptr, ptr %8, align 8, !tbaa !24
  %15 = load i64, ptr %9, align 8, !tbaa !26
  %16 = getelementptr inbounds i8, ptr %14, i64 %15
  store ptr %16, ptr %13, align 8, !tbaa !24
  store i32 0, ptr %12, align 4, !tbaa !11
  br label %17

17:                                               ; preds = %335, %5
  %18 = load i32, ptr %12, align 4, !tbaa !11
  %19 = load i32, ptr %10, align 4, !tbaa !11
  %20 = icmp slt i32 %18, %19
  br i1 %20, label %21, label %338

21:                                               ; preds = %17
  %22 = load ptr, ptr %7, align 8, !tbaa !24
  %23 = getelementptr inbounds i8, ptr %22, i64 0
  %24 = load i8, ptr %23, align 1, !tbaa !36
  %25 = zext i8 %24 to i32
  %26 = load ptr, ptr %8, align 8, !tbaa !24
  %27 = getelementptr inbounds i8, ptr %26, i64 0
  %28 = load i8, ptr %27, align 1, !tbaa !36
  %29 = zext i8 %28 to i32
  %30 = load ptr, ptr %13, align 8, !tbaa !24
  %31 = getelementptr inbounds i8, ptr %30, i64 0
  %32 = load i8, ptr %31, align 1, !tbaa !36
  %33 = zext i8 %32 to i32
  %34 = add nsw i32 %29, %33
  %35 = add nsw i32 %34, 1
  %36 = ashr i32 %35, 1
  %37 = sub nsw i32 %25, %36
  %38 = call i32 @llvm.abs.i32(i32 %37, i1 true)
  %39 = load i32, ptr %11, align 4, !tbaa !11
  %40 = add nsw i32 %39, %38
  store i32 %40, ptr %11, align 4, !tbaa !11
  %41 = load ptr, ptr %7, align 8, !tbaa !24
  %42 = getelementptr inbounds i8, ptr %41, i64 1
  %43 = load i8, ptr %42, align 1, !tbaa !36
  %44 = zext i8 %43 to i32
  %45 = load ptr, ptr %8, align 8, !tbaa !24
  %46 = getelementptr inbounds i8, ptr %45, i64 1
  %47 = load i8, ptr %46, align 1, !tbaa !36
  %48 = zext i8 %47 to i32
  %49 = load ptr, ptr %13, align 8, !tbaa !24
  %50 = getelementptr inbounds i8, ptr %49, i64 1
  %51 = load i8, ptr %50, align 1, !tbaa !36
  %52 = zext i8 %51 to i32
  %53 = add nsw i32 %48, %52
  %54 = add nsw i32 %53, 1
  %55 = ashr i32 %54, 1
  %56 = sub nsw i32 %44, %55
  %57 = call i32 @llvm.abs.i32(i32 %56, i1 true)
  %58 = load i32, ptr %11, align 4, !tbaa !11
  %59 = add nsw i32 %58, %57
  store i32 %59, ptr %11, align 4, !tbaa !11
  %60 = load ptr, ptr %7, align 8, !tbaa !24
  %61 = getelementptr inbounds i8, ptr %60, i64 2
  %62 = load i8, ptr %61, align 1, !tbaa !36
  %63 = zext i8 %62 to i32
  %64 = load ptr, ptr %8, align 8, !tbaa !24
  %65 = getelementptr inbounds i8, ptr %64, i64 2
  %66 = load i8, ptr %65, align 1, !tbaa !36
  %67 = zext i8 %66 to i32
  %68 = load ptr, ptr %13, align 8, !tbaa !24
  %69 = getelementptr inbounds i8, ptr %68, i64 2
  %70 = load i8, ptr %69, align 1, !tbaa !36
  %71 = zext i8 %70 to i32
  %72 = add nsw i32 %67, %71
  %73 = add nsw i32 %72, 1
  %74 = ashr i32 %73, 1
  %75 = sub nsw i32 %63, %74
  %76 = call i32 @llvm.abs.i32(i32 %75, i1 true)
  %77 = load i32, ptr %11, align 4, !tbaa !11
  %78 = add nsw i32 %77, %76
  store i32 %78, ptr %11, align 4, !tbaa !11
  %79 = load ptr, ptr %7, align 8, !tbaa !24
  %80 = getelementptr inbounds i8, ptr %79, i64 3
  %81 = load i8, ptr %80, align 1, !tbaa !36
  %82 = zext i8 %81 to i32
  %83 = load ptr, ptr %8, align 8, !tbaa !24
  %84 = getelementptr inbounds i8, ptr %83, i64 3
  %85 = load i8, ptr %84, align 1, !tbaa !36
  %86 = zext i8 %85 to i32
  %87 = load ptr, ptr %13, align 8, !tbaa !24
  %88 = getelementptr inbounds i8, ptr %87, i64 3
  %89 = load i8, ptr %88, align 1, !tbaa !36
  %90 = zext i8 %89 to i32
  %91 = add nsw i32 %86, %90
  %92 = add nsw i32 %91, 1
  %93 = ashr i32 %92, 1
  %94 = sub nsw i32 %82, %93
  %95 = call i32 @llvm.abs.i32(i32 %94, i1 true)
  %96 = load i32, ptr %11, align 4, !tbaa !11
  %97 = add nsw i32 %96, %95
  store i32 %97, ptr %11, align 4, !tbaa !11
  %98 = load ptr, ptr %7, align 8, !tbaa !24
  %99 = getelementptr inbounds i8, ptr %98, i64 4
  %100 = load i8, ptr %99, align 1, !tbaa !36
  %101 = zext i8 %100 to i32
  %102 = load ptr, ptr %8, align 8, !tbaa !24
  %103 = getelementptr inbounds i8, ptr %102, i64 4
  %104 = load i8, ptr %103, align 1, !tbaa !36
  %105 = zext i8 %104 to i32
  %106 = load ptr, ptr %13, align 8, !tbaa !24
  %107 = getelementptr inbounds i8, ptr %106, i64 4
  %108 = load i8, ptr %107, align 1, !tbaa !36
  %109 = zext i8 %108 to i32
  %110 = add nsw i32 %105, %109
  %111 = add nsw i32 %110, 1
  %112 = ashr i32 %111, 1
  %113 = sub nsw i32 %101, %112
  %114 = call i32 @llvm.abs.i32(i32 %113, i1 true)
  %115 = load i32, ptr %11, align 4, !tbaa !11
  %116 = add nsw i32 %115, %114
  store i32 %116, ptr %11, align 4, !tbaa !11
  %117 = load ptr, ptr %7, align 8, !tbaa !24
  %118 = getelementptr inbounds i8, ptr %117, i64 5
  %119 = load i8, ptr %118, align 1, !tbaa !36
  %120 = zext i8 %119 to i32
  %121 = load ptr, ptr %8, align 8, !tbaa !24
  %122 = getelementptr inbounds i8, ptr %121, i64 5
  %123 = load i8, ptr %122, align 1, !tbaa !36
  %124 = zext i8 %123 to i32
  %125 = load ptr, ptr %13, align 8, !tbaa !24
  %126 = getelementptr inbounds i8, ptr %125, i64 5
  %127 = load i8, ptr %126, align 1, !tbaa !36
  %128 = zext i8 %127 to i32
  %129 = add nsw i32 %124, %128
  %130 = add nsw i32 %129, 1
  %131 = ashr i32 %130, 1
  %132 = sub nsw i32 %120, %131
  %133 = call i32 @llvm.abs.i32(i32 %132, i1 true)
  %134 = load i32, ptr %11, align 4, !tbaa !11
  %135 = add nsw i32 %134, %133
  store i32 %135, ptr %11, align 4, !tbaa !11
  %136 = load ptr, ptr %7, align 8, !tbaa !24
  %137 = getelementptr inbounds i8, ptr %136, i64 6
  %138 = load i8, ptr %137, align 1, !tbaa !36
  %139 = zext i8 %138 to i32
  %140 = load ptr, ptr %8, align 8, !tbaa !24
  %141 = getelementptr inbounds i8, ptr %140, i64 6
  %142 = load i8, ptr %141, align 1, !tbaa !36
  %143 = zext i8 %142 to i32
  %144 = load ptr, ptr %13, align 8, !tbaa !24
  %145 = getelementptr inbounds i8, ptr %144, i64 6
  %146 = load i8, ptr %145, align 1, !tbaa !36
  %147 = zext i8 %146 to i32
  %148 = add nsw i32 %143, %147
  %149 = add nsw i32 %148, 1
  %150 = ashr i32 %149, 1
  %151 = sub nsw i32 %139, %150
  %152 = call i32 @llvm.abs.i32(i32 %151, i1 true)
  %153 = load i32, ptr %11, align 4, !tbaa !11
  %154 = add nsw i32 %153, %152
  store i32 %154, ptr %11, align 4, !tbaa !11
  %155 = load ptr, ptr %7, align 8, !tbaa !24
  %156 = getelementptr inbounds i8, ptr %155, i64 7
  %157 = load i8, ptr %156, align 1, !tbaa !36
  %158 = zext i8 %157 to i32
  %159 = load ptr, ptr %8, align 8, !tbaa !24
  %160 = getelementptr inbounds i8, ptr %159, i64 7
  %161 = load i8, ptr %160, align 1, !tbaa !36
  %162 = zext i8 %161 to i32
  %163 = load ptr, ptr %13, align 8, !tbaa !24
  %164 = getelementptr inbounds i8, ptr %163, i64 7
  %165 = load i8, ptr %164, align 1, !tbaa !36
  %166 = zext i8 %165 to i32
  %167 = add nsw i32 %162, %166
  %168 = add nsw i32 %167, 1
  %169 = ashr i32 %168, 1
  %170 = sub nsw i32 %158, %169
  %171 = call i32 @llvm.abs.i32(i32 %170, i1 true)
  %172 = load i32, ptr %11, align 4, !tbaa !11
  %173 = add nsw i32 %172, %171
  store i32 %173, ptr %11, align 4, !tbaa !11
  %174 = load ptr, ptr %7, align 8, !tbaa !24
  %175 = getelementptr inbounds i8, ptr %174, i64 8
  %176 = load i8, ptr %175, align 1, !tbaa !36
  %177 = zext i8 %176 to i32
  %178 = load ptr, ptr %8, align 8, !tbaa !24
  %179 = getelementptr inbounds i8, ptr %178, i64 8
  %180 = load i8, ptr %179, align 1, !tbaa !36
  %181 = zext i8 %180 to i32
  %182 = load ptr, ptr %13, align 8, !tbaa !24
  %183 = getelementptr inbounds i8, ptr %182, i64 8
  %184 = load i8, ptr %183, align 1, !tbaa !36
  %185 = zext i8 %184 to i32
  %186 = add nsw i32 %181, %185
  %187 = add nsw i32 %186, 1
  %188 = ashr i32 %187, 1
  %189 = sub nsw i32 %177, %188
  %190 = call i32 @llvm.abs.i32(i32 %189, i1 true)
  %191 = load i32, ptr %11, align 4, !tbaa !11
  %192 = add nsw i32 %191, %190
  store i32 %192, ptr %11, align 4, !tbaa !11
  %193 = load ptr, ptr %7, align 8, !tbaa !24
  %194 = getelementptr inbounds i8, ptr %193, i64 9
  %195 = load i8, ptr %194, align 1, !tbaa !36
  %196 = zext i8 %195 to i32
  %197 = load ptr, ptr %8, align 8, !tbaa !24
  %198 = getelementptr inbounds i8, ptr %197, i64 9
  %199 = load i8, ptr %198, align 1, !tbaa !36
  %200 = zext i8 %199 to i32
  %201 = load ptr, ptr %13, align 8, !tbaa !24
  %202 = getelementptr inbounds i8, ptr %201, i64 9
  %203 = load i8, ptr %202, align 1, !tbaa !36
  %204 = zext i8 %203 to i32
  %205 = add nsw i32 %200, %204
  %206 = add nsw i32 %205, 1
  %207 = ashr i32 %206, 1
  %208 = sub nsw i32 %196, %207
  %209 = call i32 @llvm.abs.i32(i32 %208, i1 true)
  %210 = load i32, ptr %11, align 4, !tbaa !11
  %211 = add nsw i32 %210, %209
  store i32 %211, ptr %11, align 4, !tbaa !11
  %212 = load ptr, ptr %7, align 8, !tbaa !24
  %213 = getelementptr inbounds i8, ptr %212, i64 10
  %214 = load i8, ptr %213, align 1, !tbaa !36
  %215 = zext i8 %214 to i32
  %216 = load ptr, ptr %8, align 8, !tbaa !24
  %217 = getelementptr inbounds i8, ptr %216, i64 10
  %218 = load i8, ptr %217, align 1, !tbaa !36
  %219 = zext i8 %218 to i32
  %220 = load ptr, ptr %13, align 8, !tbaa !24
  %221 = getelementptr inbounds i8, ptr %220, i64 10
  %222 = load i8, ptr %221, align 1, !tbaa !36
  %223 = zext i8 %222 to i32
  %224 = add nsw i32 %219, %223
  %225 = add nsw i32 %224, 1
  %226 = ashr i32 %225, 1
  %227 = sub nsw i32 %215, %226
  %228 = call i32 @llvm.abs.i32(i32 %227, i1 true)
  %229 = load i32, ptr %11, align 4, !tbaa !11
  %230 = add nsw i32 %229, %228
  store i32 %230, ptr %11, align 4, !tbaa !11
  %231 = load ptr, ptr %7, align 8, !tbaa !24
  %232 = getelementptr inbounds i8, ptr %231, i64 11
  %233 = load i8, ptr %232, align 1, !tbaa !36
  %234 = zext i8 %233 to i32
  %235 = load ptr, ptr %8, align 8, !tbaa !24
  %236 = getelementptr inbounds i8, ptr %235, i64 11
  %237 = load i8, ptr %236, align 1, !tbaa !36
  %238 = zext i8 %237 to i32
  %239 = load ptr, ptr %13, align 8, !tbaa !24
  %240 = getelementptr inbounds i8, ptr %239, i64 11
  %241 = load i8, ptr %240, align 1, !tbaa !36
  %242 = zext i8 %241 to i32
  %243 = add nsw i32 %238, %242
  %244 = add nsw i32 %243, 1
  %245 = ashr i32 %244, 1
  %246 = sub nsw i32 %234, %245
  %247 = call i32 @llvm.abs.i32(i32 %246, i1 true)
  %248 = load i32, ptr %11, align 4, !tbaa !11
  %249 = add nsw i32 %248, %247
  store i32 %249, ptr %11, align 4, !tbaa !11
  %250 = load ptr, ptr %7, align 8, !tbaa !24
  %251 = getelementptr inbounds i8, ptr %250, i64 12
  %252 = load i8, ptr %251, align 1, !tbaa !36
  %253 = zext i8 %252 to i32
  %254 = load ptr, ptr %8, align 8, !tbaa !24
  %255 = getelementptr inbounds i8, ptr %254, i64 12
  %256 = load i8, ptr %255, align 1, !tbaa !36
  %257 = zext i8 %256 to i32
  %258 = load ptr, ptr %13, align 8, !tbaa !24
  %259 = getelementptr inbounds i8, ptr %258, i64 12
  %260 = load i8, ptr %259, align 1, !tbaa !36
  %261 = zext i8 %260 to i32
  %262 = add nsw i32 %257, %261
  %263 = add nsw i32 %262, 1
  %264 = ashr i32 %263, 1
  %265 = sub nsw i32 %253, %264
  %266 = call i32 @llvm.abs.i32(i32 %265, i1 true)
  %267 = load i32, ptr %11, align 4, !tbaa !11
  %268 = add nsw i32 %267, %266
  store i32 %268, ptr %11, align 4, !tbaa !11
  %269 = load ptr, ptr %7, align 8, !tbaa !24
  %270 = getelementptr inbounds i8, ptr %269, i64 13
  %271 = load i8, ptr %270, align 1, !tbaa !36
  %272 = zext i8 %271 to i32
  %273 = load ptr, ptr %8, align 8, !tbaa !24
  %274 = getelementptr inbounds i8, ptr %273, i64 13
  %275 = load i8, ptr %274, align 1, !tbaa !36
  %276 = zext i8 %275 to i32
  %277 = load ptr, ptr %13, align 8, !tbaa !24
  %278 = getelementptr inbounds i8, ptr %277, i64 13
  %279 = load i8, ptr %278, align 1, !tbaa !36
  %280 = zext i8 %279 to i32
  %281 = add nsw i32 %276, %280
  %282 = add nsw i32 %281, 1
  %283 = ashr i32 %282, 1
  %284 = sub nsw i32 %272, %283
  %285 = call i32 @llvm.abs.i32(i32 %284, i1 true)
  %286 = load i32, ptr %11, align 4, !tbaa !11
  %287 = add nsw i32 %286, %285
  store i32 %287, ptr %11, align 4, !tbaa !11
  %288 = load ptr, ptr %7, align 8, !tbaa !24
  %289 = getelementptr inbounds i8, ptr %288, i64 14
  %290 = load i8, ptr %289, align 1, !tbaa !36
  %291 = zext i8 %290 to i32
  %292 = load ptr, ptr %8, align 8, !tbaa !24
  %293 = getelementptr inbounds i8, ptr %292, i64 14
  %294 = load i8, ptr %293, align 1, !tbaa !36
  %295 = zext i8 %294 to i32
  %296 = load ptr, ptr %13, align 8, !tbaa !24
  %297 = getelementptr inbounds i8, ptr %296, i64 14
  %298 = load i8, ptr %297, align 1, !tbaa !36
  %299 = zext i8 %298 to i32
  %300 = add nsw i32 %295, %299
  %301 = add nsw i32 %300, 1
  %302 = ashr i32 %301, 1
  %303 = sub nsw i32 %291, %302
  %304 = call i32 @llvm.abs.i32(i32 %303, i1 true)
  %305 = load i32, ptr %11, align 4, !tbaa !11
  %306 = add nsw i32 %305, %304
  store i32 %306, ptr %11, align 4, !tbaa !11
  %307 = load ptr, ptr %7, align 8, !tbaa !24
  %308 = getelementptr inbounds i8, ptr %307, i64 15
  %309 = load i8, ptr %308, align 1, !tbaa !36
  %310 = zext i8 %309 to i32
  %311 = load ptr, ptr %8, align 8, !tbaa !24
  %312 = getelementptr inbounds i8, ptr %311, i64 15
  %313 = load i8, ptr %312, align 1, !tbaa !36
  %314 = zext i8 %313 to i32
  %315 = load ptr, ptr %13, align 8, !tbaa !24
  %316 = getelementptr inbounds i8, ptr %315, i64 15
  %317 = load i8, ptr %316, align 1, !tbaa !36
  %318 = zext i8 %317 to i32
  %319 = add nsw i32 %314, %318
  %320 = add nsw i32 %319, 1
  %321 = ashr i32 %320, 1
  %322 = sub nsw i32 %310, %321
  %323 = call i32 @llvm.abs.i32(i32 %322, i1 true)
  %324 = load i32, ptr %11, align 4, !tbaa !11
  %325 = add nsw i32 %324, %323
  store i32 %325, ptr %11, align 4, !tbaa !11
  %326 = load i64, ptr %9, align 8, !tbaa !26
  %327 = load ptr, ptr %7, align 8, !tbaa !24
  %328 = getelementptr inbounds i8, ptr %327, i64 %326
  store ptr %328, ptr %7, align 8, !tbaa !24
  %329 = load i64, ptr %9, align 8, !tbaa !26
  %330 = load ptr, ptr %8, align 8, !tbaa !24
  %331 = getelementptr inbounds i8, ptr %330, i64 %329
  store ptr %331, ptr %8, align 8, !tbaa !24
  %332 = load i64, ptr %9, align 8, !tbaa !26
  %333 = load ptr, ptr %13, align 8, !tbaa !24
  %334 = getelementptr inbounds i8, ptr %333, i64 %332
  store ptr %334, ptr %13, align 8, !tbaa !24
  br label %335

335:                                              ; preds = %21
  %336 = load i32, ptr %12, align 4, !tbaa !11
  %337 = add nsw i32 %336, 1
  store i32 %337, ptr %12, align 4, !tbaa !11
  br label %17, !llvm.loop !39

338:                                              ; preds = %17
  %339 = load i32, ptr %11, align 4, !tbaa !11
  call void @llvm.lifetime.end.p0(i64 8, ptr %13) #9
  call void @llvm.lifetime.end.p0(i64 4, ptr %12) #9
  call void @llvm.lifetime.end.p0(i64 4, ptr %11) #9
  ret i32 %339
}