; Function Attrs: nofree norecurse nosync nounwind memory(argmem: read) uwtable
define internal i32 @pix_abs16_y2_c(ptr readnone captures(none) %0, ptr noundef readonly captures(none) %1, ptr noundef readonly captures(none) %2, i64 noundef %3, i32 noundef %4) #5 {
  %6 = icmp sgt i32 %4, 0
  br i1 %6, label %.lr.ph, label %._crit_edge

.lr.ph:                                           ; preds = %5, %.lr.ph
  %.pn83 = phi ptr [ %.0, %.lr.ph ], [ %2, %5 ]
  %.07582 = phi i32 [ %245, %.lr.ph ], [ 0, %5 ]
  %.07681 = phi i32 [ %243, %.lr.ph ], [ 0, %5 ]
  %.07780 = phi ptr [ %244, %.lr.ph ], [ %1, %5 ]
  %.0 = getelementptr i8, ptr %.pn83, i64 %3
  %7 = load i8, ptr %.07780, align 1, !tbaa !20
  %8 = zext i8 %7 to i32
  %9 = load i8, ptr %.pn83, align 1, !tbaa !20
  %10 = zext i8 %9 to i32
  %11 = load i8, ptr %.0, align 1, !tbaa !20
  %12 = zext i8 %11 to i32
  %13 = add nuw nsw i32 %10, 1
  %14 = add nuw nsw i32 %13, %12
  %15 = lshr i32 %14, 1
  %16 = sub nsw i32 %8, %15
  %17 = tail call i32 @llvm.abs.i32(i32 %16, i1 true)
  %18 = add nsw i32 %17, %.07681
  %19 = getelementptr inbounds nuw i8, ptr %.07780, i64 1
  %20 = load i8, ptr %19, align 1, !tbaa !20
  %21 = zext i8 %20 to i32
  %22 = getelementptr inbounds nuw i8, ptr %.pn83, i64 1
  %23 = load i8, ptr %22, align 1, !tbaa !20
  %24 = zext i8 %23 to i32
  %25 = getelementptr inbounds nuw i8, ptr %.0, i64 1
  %26 = load i8, ptr %25, align 1, !tbaa !20
  %27 = zext i8 %26 to i32
  %28 = add nuw nsw i32 %24, 1
  %29 = add nuw nsw i32 %28, %27
  %30 = lshr i32 %29, 1
  %31 = sub nsw i32 %21, %30
  %32 = tail call i32 @llvm.abs.i32(i32 %31, i1 true)
  %33 = add nsw i32 %18, %32
  %34 = getelementptr inbounds nuw i8, ptr %.07780, i64 2
  %35 = load i8, ptr %34, align 1, !tbaa !20
  %36 = zext i8 %35 to i32
  %37 = getelementptr inbounds nuw i8, ptr %.pn83, i64 2
  %38 = load i8, ptr %37, align 1, !tbaa !20
  %39 = zext i8 %38 to i32
  %40 = getelementptr inbounds nuw i8, ptr %.0, i64 2
  %41 = load i8, ptr %40, align 1, !tbaa !20
  %42 = zext i8 %41 to i32
  %43 = add nuw nsw i32 %39, 1
  %44 = add nuw nsw i32 %43, %42
  %45 = lshr i32 %44, 1
  %46 = sub nsw i32 %36, %45
  %47 = tail call i32 @llvm.abs.i32(i32 %46, i1 true)
  %48 = add nsw i32 %33, %47
  %49 = getelementptr inbounds nuw i8, ptr %.07780, i64 3
  %50 = load i8, ptr %49, align 1, !tbaa !20
  %51 = zext i8 %50 to i32
  %52 = getelementptr inbounds nuw i8, ptr %.pn83, i64 3
  %53 = load i8, ptr %52, align 1, !tbaa !20
  %54 = zext i8 %53 to i32
  %55 = getelementptr inbounds nuw i8, ptr %.0, i64 3
  %56 = load i8, ptr %55, align 1, !tbaa !20
  %57 = zext i8 %56 to i32
  %58 = add nuw nsw i32 %54, 1
  %59 = add nuw nsw i32 %58, %57
  %60 = lshr i32 %59, 1
  %61 = sub nsw i32 %51, %60
  %62 = tail call i32 @llvm.abs.i32(i32 %61, i1 true)
  %63 = add nsw i32 %48, %62
  %64 = getelementptr inbounds nuw i8, ptr %.07780, i64 4
  %65 = load i8, ptr %64, align 1, !tbaa !20
  %66 = zext i8 %65 to i32
  %67 = getelementptr inbounds nuw i8, ptr %.pn83, i64 4
  %68 = load i8, ptr %67, align 1, !tbaa !20
  %69 = zext i8 %68 to i32
  %70 = getelementptr inbounds nuw i8, ptr %.0, i64 4
  %71 = load i8, ptr %70, align 1, !tbaa !20
  %72 = zext i8 %71 to i32
  %73 = add nuw nsw i32 %69, 1
  %74 = add nuw nsw i32 %73, %72
  %75 = lshr i32 %74, 1
  %76 = sub nsw i32 %66, %75
  %77 = tail call i32 @llvm.abs.i32(i32 %76, i1 true)
  %78 = add nsw i32 %63, %77
  %79 = getelementptr inbounds nuw i8, ptr %.07780, i64 5
  %80 = load i8, ptr %79, align 1, !tbaa !20
  %81 = zext i8 %80 to i32
  %82 = getelementptr inbounds nuw i8, ptr %.pn83, i64 5
  %83 = load i8, ptr %82, align 1, !tbaa !20
  %84 = zext i8 %83 to i32
  %85 = getelementptr inbounds nuw i8, ptr %.0, i64 5
  %86 = load i8, ptr %85, align 1, !tbaa !20
  %87 = zext i8 %86 to i32
  %88 = add nuw nsw i32 %84, 1
  %89 = add nuw nsw i32 %88, %87
  %90 = lshr i32 %89, 1
  %91 = sub nsw i32 %81, %90
  %92 = tail call i32 @llvm.abs.i32(i32 %91, i1 true)
  %93 = add nsw i32 %78, %92
  %94 = getelementptr inbounds nuw i8, ptr %.07780, i64 6
  %95 = load i8, ptr %94, align 1, !tbaa !20
  %96 = zext i8 %95 to i32
  %97 = getelementptr inbounds nuw i8, ptr %.pn83, i64 6
  %98 = load i8, ptr %97, align 1, !tbaa !20
  %99 = zext i8 %98 to i32
  %100 = getelementptr inbounds nuw i8, ptr %.0, i64 6
  %101 = load i8, ptr %100, align 1, !tbaa !20
  %102 = zext i8 %101 to i32
  %103 = add nuw nsw i32 %99, 1
  %104 = add nuw nsw i32 %103, %102
  %105 = lshr i32 %104, 1
  %106 = sub nsw i32 %96, %105
  %107 = tail call i32 @llvm.abs.i32(i32 %106, i1 true)
  %108 = add nsw i32 %93, %107
  %109 = getelementptr inbounds nuw i8, ptr %.07780, i64 7
  %110 = load i8, ptr %109, align 1, !tbaa !20
  %111 = zext i8 %110 to i32
  %112 = getelementptr inbounds nuw i8, ptr %.pn83, i64 7
  %113 = load i8, ptr %112, align 1, !tbaa !20
  %114 = zext i8 %113 to i32
  %115 = getelementptr inbounds nuw i8, ptr %.0, i64 7
  %116 = load i8, ptr %115, align 1, !tbaa !20
  %117 = zext i8 %116 to i32
  %118 = add nuw nsw i32 %114, 1
  %119 = add nuw nsw i32 %118, %117
  %120 = lshr i32 %119, 1
  %121 = sub nsw i32 %111, %120
  %122 = tail call i32 @llvm.abs.i32(i32 %121, i1 true)
  %123 = add nsw i32 %108, %122
  %124 = getelementptr inbounds nuw i8, ptr %.07780, i64 8
  %125 = load i8, ptr %124, align 1, !tbaa !20
  %126 = zext i8 %125 to i32
  %127 = getelementptr inbounds nuw i8, ptr %.pn83, i64 8
  %128 = load i8, ptr %127, align 1, !tbaa !20
  %129 = zext i8 %128 to i32
  %130 = getelementptr inbounds nuw i8, ptr %.0, i64 8
  %131 = load i8, ptr %130, align 1, !tbaa !20
  %132 = zext i8 %131 to i32
  %133 = add nuw nsw i32 %129, 1
  %134 = add nuw nsw i32 %133, %132
  %135 = lshr i32 %134, 1
  %136 = sub nsw i32 %126, %135
  %137 = tail call i32 @llvm.abs.i32(i32 %136, i1 true)
  %138 = add nsw i32 %123, %137
  %139 = getelementptr inbounds nuw i8, ptr %.07780, i64 9
  %140 = load i8, ptr %139, align 1, !tbaa !20
  %141 = zext i8 %140 to i32
  %142 = getelementptr inbounds nuw i8, ptr %.pn83, i64 9
  %143 = load i8, ptr %142, align 1, !tbaa !20
  %144 = zext i8 %143 to i32
  %145 = getelementptr inbounds nuw i8, ptr %.0, i64 9
  %146 = load i8, ptr %145, align 1, !tbaa !20
  %147 = zext i8 %146 to i32
  %148 = add nuw nsw i32 %144, 1
  %149 = add nuw nsw i32 %148, %147
  %150 = lshr i32 %149, 1
  %151 = sub nsw i32 %141, %150
  %152 = tail call i32 @llvm.abs.i32(i32 %151, i1 true)
  %153 = add nsw i32 %138, %152
  %154 = getelementptr inbounds nuw i8, ptr %.07780, i64 10
  %155 = load i8, ptr %154, align 1, !tbaa !20
  %156 = zext i8 %155 to i32
  %157 = getelementptr inbounds nuw i8, ptr %.pn83, i64 10
  %158 = load i8, ptr %157, align 1, !tbaa !20
  %159 = zext i8 %158 to i32
  %160 = getelementptr inbounds nuw i8, ptr %.0, i64 10
  %161 = load i8, ptr %160, align 1, !tbaa !20
  %162 = zext i8 %161 to i32
  %163 = add nuw nsw i32 %159, 1
  %164 = add nuw nsw i32 %163, %162
  %165 = lshr i32 %164, 1
  %166 = sub nsw i32 %156, %165
  %167 = tail call i32 @llvm.abs.i32(i32 %166, i1 true)
  %168 = add nsw i32 %153, %167
  %169 = getelementptr inbounds nuw i8, ptr %.07780, i64 11
  %170 = load i8, ptr %169, align 1, !tbaa !20
  %171 = zext i8 %170 to i32
  %172 = getelementptr inbounds nuw i8, ptr %.pn83, i64 11
  %173 = load i8, ptr %172, align 1, !tbaa !20
  %174 = zext i8 %173 to i32
  %175 = getelementptr inbounds nuw i8, ptr %.0, i64 11
  %176 = load i8, ptr %175, align 1, !tbaa !20
  %177 = zext i8 %176 to i32
  %178 = add nuw nsw i32 %174, 1
  %179 = add nuw nsw i32 %178, %177
  %180 = lshr i32 %179, 1
  %181 = sub nsw i32 %171, %180
  %182 = tail call i32 @llvm.abs.i32(i32 %181, i1 true)
  %183 = add nsw i32 %168, %182
  %184 = getelementptr inbounds nuw i8, ptr %.07780, i64 12
  %185 = load i8, ptr %184, align 1, !tbaa !20
  %186 = zext i8 %185 to i32
  %187 = getelementptr inbounds nuw i8, ptr %.pn83, i64 12
  %188 = load i8, ptr %187, align 1, !tbaa !20
  %189 = zext i8 %188 to i32
  %190 = getelementptr inbounds nuw i8, ptr %.0, i64 12
  %191 = load i8, ptr %190, align 1, !tbaa !20
  %192 = zext i8 %191 to i32
  %193 = add nuw nsw i32 %189, 1
  %194 = add nuw nsw i32 %193, %192
  %195 = lshr i32 %194, 1
  %196 = sub nsw i32 %186, %195
  %197 = tail call i32 @llvm.abs.i32(i32 %196, i1 true)
  %198 = add nsw i32 %183, %197
  %199 = getelementptr inbounds nuw i8, ptr %.07780, i64 13
  %200 = load i8, ptr %199, align 1, !tbaa !20
  %201 = zext i8 %200 to i32
  %202 = getelementptr inbounds nuw i8, ptr %.pn83, i64 13
  %203 = load i8, ptr %202, align 1, !tbaa !20
  %204 = zext i8 %203 to i32
  %205 = getelementptr inbounds nuw i8, ptr %.0, i64 13
  %206 = load i8, ptr %205, align 1, !tbaa !20
  %207 = zext i8 %206 to i32
  %208 = add nuw nsw i32 %204, 1
  %209 = add nuw nsw i32 %208, %207
  %210 = lshr i32 %209, 1
  %211 = sub nsw i32 %201, %210
  %212 = tail call i32 @llvm.abs.i32(i32 %211, i1 true)
  %213 = add nsw i32 %198, %212
  %214 = getelementptr inbounds nuw i8, ptr %.07780, i64 14
  %215 = load i8, ptr %214, align 1, !tbaa !20
  %216 = zext i8 %215 to i32
  %217 = getelementptr inbounds nuw i8, ptr %.pn83, i64 14
  %218 = load i8, ptr %217, align 1, !tbaa !20
  %219 = zext i8 %218 to i32
  %220 = getelementptr inbounds nuw i8, ptr %.0, i64 14
  %221 = load i8, ptr %220, align 1, !tbaa !20
  %222 = zext i8 %221 to i32
  %223 = add nuw nsw i32 %219, 1
  %224 = add nuw nsw i32 %223, %222
  %225 = lshr i32 %224, 1
  %226 = sub nsw i32 %216, %225
  %227 = tail call i32 @llvm.abs.i32(i32 %226, i1 true)
  %228 = add nsw i32 %213, %227
  %229 = getelementptr inbounds nuw i8, ptr %.07780, i64 15
  %230 = load i8, ptr %229, align 1, !tbaa !20
  %231 = zext i8 %230 to i32
  %232 = getelementptr inbounds nuw i8, ptr %.pn83, i64 15
  %233 = load i8, ptr %232, align 1, !tbaa !20
  %234 = zext i8 %233 to i32
  %235 = getelementptr inbounds nuw i8, ptr %.0, i64 15
  %236 = load i8, ptr %235, align 1, !tbaa !20
  %237 = zext i8 %236 to i32
  %238 = add nuw nsw i32 %234, 1
  %239 = add nuw nsw i32 %238, %237
  %240 = lshr i32 %239, 1
  %241 = sub nsw i32 %231, %240
  %242 = tail call i32 @llvm.abs.i32(i32 %241, i1 true)
  %243 = add nsw i32 %228, %242
  %244 = getelementptr inbounds i8, ptr %.07780, i64 %3
  %245 = add nuw nsw i32 %.07582, 1
  %exitcond.not = icmp eq i32 %245, %4
  br i1 %exitcond.not, label %._crit_edge, label %.lr.ph, !llvm.loop !23

._crit_edge:                                      ; preds = %.lr.ph, %5
  %.076.lcssa = phi i32 [ 0, %5 ], [ %243, %.lr.ph ]
  ret i32 %.076.lcssa
}